target datalayout = "e-m:e-p270:32:32-p271:32:32-p272:64:64-i64:64-i128:128-f80:128-n8:16:32:64-S128"
target triple = "x86_64-pc-linux-gnu"

@ff_square_tab = external hidden constant [512 x i32], align 16

; Function Attrs: nounwind uwtable
define internal i32 @pix_norm1_c(ptr noundef %0, i64 noundef %1) #1 {
  %3 = alloca ptr, align 8
  %4 = alloca i64, align 8
  %5 = alloca i32, align 4
  %6 = alloca i32, align 4
  %7 = alloca i32, align 4
  %8 = alloca ptr, align 8
  %9 = alloca i32, align 4
  store ptr %0, ptr %3, align 8, !tbaa !27
  store i64 %1, ptr %4, align 8, !tbaa !29
  call void @llvm.lifetime.start.p0(i64 4, ptr %5) #7
  store i32 0, ptr %5, align 4, !tbaa !20
  call void @llvm.lifetime.start.p0(i64 4, ptr %6) #7
  call void @llvm.lifetime.start.p0(i64 4, ptr %7) #7
  call void @llvm.lifetime.start.p0(i64 8, ptr %8) #7
  store ptr getelementptr inbounds (i32, ptr @ff_square_tab, i64 256), ptr %8, align 8, !tbaa !42
  store i32 0, ptr %6, align 4, !tbaa !20
  br label %10

10:                                               ; preds = %103, %2
  %11 = load i32, ptr %6, align 4, !tbaa !20
  %12 = icmp slt i32 %11, 16
  br i1 %12, label %13, label %106

13:                                               ; preds = %10
  store i32 0, ptr %7, align 4, !tbaa !20
  br label %14

14:                                               ; preds = %95, %13
  %15 = load i32, ptr %7, align 4, !tbaa !20
  %16 = icmp slt i32 %15, 16
  br i1 %16, label %17, label %98

17:                                               ; preds = %14
  call void @llvm.lifetime.start.p0(i64 4, ptr %9) #7
  %18 = load ptr, ptr %3, align 8, !tbaa !27
  %19 = load i32, ptr %18, align 4, !tbaa !20
  store i32 %19, ptr %9, align 4, !tbaa !20
  %20 = load ptr, ptr %8, align 8, !tbaa !42
  %21 = load i32, ptr %9, align 4, !tbaa !20
  %22 = and i32 %21, 255
  %23 = zext i32 %22 to i64
  %24 = getelementptr inbounds nuw i32, ptr %20, i64 %23
  %25 = load i32, ptr %24, align 4, !tbaa !20
  %26 = load i32, ptr %5, align 4, !tbaa !20
  %27 = add i32 %26, %25
  store i32 %27, ptr %5, align 4, !tbaa !20
  %28 = load ptr, ptr %8, align 8, !tbaa !42
  %29 = load i32, ptr %9, align 4, !tbaa !20
  %30 = lshr i32 %29, 8
  %31 = and i32 %30, 255
  %32 = zext i32 %31 to i64
  %33 = getelementptr inbounds nuw i32, ptr %28, i64 %32
  %34 = load i32, ptr %33, align 4, !tbaa !20
  %35 = load i32, ptr %5, align 4, !tbaa !20
  %36 = add i32 %35, %34
  store i32 %36, ptr %5, align 4, !tbaa !20
  %37 = load ptr, ptr %8, align 8, !tbaa !42
  %38 = load i32, ptr %9, align 4, !tbaa !20
  %39 = lshr i32 %38, 16
  %40 = and i32 %39, 255
  %41 = zext i32 %40 to i64
  %42 = getelementptr inbounds nuw i32, ptr %37, i64 %41
  %43 = load i32, ptr %42, align 4, !tbaa !20
  %44 = load i32, ptr %5, align 4, !tbaa !20
  %45 = add i32 %44, %43
  store i32 %45, ptr %5, align 4, !tbaa !20
  %46 = load ptr, ptr %8, align 8, !tbaa !42
  %47 = load i32, ptr %9, align 4, !tbaa !20
  %48 = lshr i32 %47, 24
  %49 = and i32 %48, 255
  %50 = zext i32 %49 to i64
  %51 = getelementptr inbounds nuw i32, ptr %46, i64 %50
  %52 = load i32, ptr %51, align 4, !tbaa !20
  %53 = load i32, ptr %5, align 4, !tbaa !20
  %54 = add i32 %53, %52
  store i32 %54, ptr %5, align 4, !tbaa !20
  %55 = load ptr, ptr %3, align 8, !tbaa !27
  %56 = getelementptr inbounds i8, ptr %55, i64 4
  %57 = load i32, ptr %56, align 4, !tbaa !20
  store i32 %57, ptr %9, align 4, !tbaa !20
  %58 = load ptr, ptr %8, align 8, !tbaa !42
  %59 = load i32, ptr %9, align 4, !tbaa !20
  %60 = and i32 %59, 255
  %61 = zext i32 %60 to i64
  %62 = getelementptr inbounds nuw i32, ptr %58, i64 %61
  %63 = load i32, ptr %62, align 4, !tbaa !20
  %64 = load i32, ptr %5, align 4, !tbaa !20
  %65 = add i32 %64, %63
  store i32 %65, ptr %5, align 4, !tbaa !20
  %66 = load ptr, ptr %8, align 8, !tbaa !42
  %67 = load i32, ptr %9, align 4, !tbaa !20
  %68 = lshr i32 %67, 8
  %69 = and i32 %68, 255
  %70 = zext i32 %69 to i64
  %71 = getelementptr inbounds nuw i32, ptr %66, i64 %70
  %72 = load i32, ptr %71, align 4, !tbaa !20
  %73 = load i32, ptr %5, align 4, !tbaa !20
  %74 = add i32 %73, %72
  store i32 %74, ptr %5, align 4, !tbaa !20
  %75 = load ptr, ptr %8, align 8, !tbaa !42
  %76 = load i32, ptr %9, align 4, !tbaa !20
  %77 = lshr i32 %76, 16
  %78 = and i32 %77, 255
  %79 = zext i32 %78 to i64
  %80 = getelementptr inbounds nuw i32, ptr %75, i64 %79
  %81 = load i32, ptr %80, align 4, !tbaa !20
  %82 = load i32, ptr %5, align 4, !tbaa !20
  %83 = add i32 %82, %81
  store i32 %83, ptr %5, align 4, !tbaa !20
  %84 = load ptr, ptr %8, align 8, !tbaa !42
  %85 = load i32, ptr %9, align 4, !tbaa !20
  %86 = lshr i32 %85, 24
  %87 = and i32 %86, 255
  %88 = zext i32 %87 to i64
  %89 = getelementptr inbounds nuw i32, ptr %84, i64 %88
  %90 = load i32, ptr %89, align 4, !tbaa !20
  %91 = load i32, ptr %5, align 4, !tbaa !20
  %92 = add i32 %91, %90
  store i32 %92, ptr %5, align 4, !tbaa !20
  %93 = load ptr, ptr %3, align 8, !tbaa !27
  %94 = getelementptr inbounds i8, ptr %93, i64 8
  store ptr %94, ptr %3, align 8, !tbaa !27
  call void @llvm.lifetime.end.p0(i64 4, ptr %9) #7
  br label %95

95:                                               ; preds = %17
  %96 = load i32, ptr %7, align 4, !tbaa !20
  %97 = add nsw i32 %96, 8
  store i32 %97, ptr %7, align 4, !tbaa !20
  br label %14, !llvm.loop !44

98:                                               ; preds = %14
  %99 = load i64, ptr %4, align 8, !tbaa !29
  %100 = sub nsw i64 %99, 16
  %101 = load ptr, ptr %3, align 8, !tbaa !27
  %102 = getelementptr inbounds i8, ptr %101, i64 %100
  store ptr %102, ptr %3, align 8, !tbaa !27
  br label %103

103:                                              ; preds = %98
  %104 = load i32, ptr %6, align 4, !tbaa !20
  %105 = add nsw i32 %104, 1
  store i32 %105, ptr %6, align 4, !tbaa !20
  br label %10, !llvm.loop !45

106:                                              ; preds = %10
  %107 = load i32, ptr %5, align 4, !tbaa !20
  call void @llvm.lifetime.end.p0(i64 8, ptr %8) #7
  call void @llvm.lifetime.end.p0(i64 4, ptr %7) #7
  call void @llvm.lifetime.end.p0(i64 4, ptr %6) #7
  call void @llvm.lifetime.end.p0(i64 4, ptr %5) #7
  ret i32 %107
}