; Function Attrs: nofree norecurse nosync nounwind memory(argmem: read) uwtable
define internal i32 @pix_norm1_c(ptr noundef readonly captures(none) %0, i64 noundef %1) #1 {
  br label %.preheader

.preheader:                                       ; preds = %2, %53
  %.042 = phi ptr [ %0, %2 ], [ %55, %53 ]
  %.03341 = phi i32 [ 0, %2 ], [ %51, %53 ]
  %.03640 = phi i32 [ 0, %2 ], [ %56, %53 ]
  br label %3

3:                                                ; preds = %.preheader, %3
  %.139 = phi ptr [ %.042, %.preheader ], [ %52, %3 ]
  %.13438 = phi i32 [ %.03341, %.preheader ], [ %51, %3 ]
  %4 = phi i1 [ true, %.preheader ], [ false, %3 ]
  %5 = load i32, ptr %.139, align 4, !tbaa !30
  %6 = and i32 %5, 255
  %7 = zext nneg i32 %6 to i64
  %8 = getelementptr inbounds nuw i32, ptr getelementptr inbounds nuw (i8, ptr @ff_square_tab, i64 1024), i64 %7
  %9 = load i32, ptr %8, align 4, !tbaa !30
  %10 = add i32 %9, %.13438
  %11 = lshr i32 %5, 8
  %12 = and i32 %11, 255
  %13 = zext nneg i32 %12 to i64
  %14 = getelementptr inbounds nuw i32, ptr getelementptr inbounds nuw (i8, ptr @ff_square_tab, i64 1024), i64 %13
  %15 = load i32, ptr %14, align 4, !tbaa !30
  %16 = add i32 %10, %15
  %17 = lshr i32 %5, 16
  %18 = and i32 %17, 255
  %19 = zext nneg i32 %18 to i64
  %20 = getelementptr inbounds nuw i32, ptr getelementptr inbounds nuw (i8, ptr @ff_square_tab, i64 1024), i64 %19
  %21 = load i32, ptr %20, align 4, !tbaa !30
  %22 = add i32 %16, %21
  %23 = lshr i32 %5, 24
  %24 = zext nneg i32 %23 to i64
  %25 = getelementptr inbounds nuw i32, ptr getelementptr inbounds nuw (i8, ptr @ff_square_tab, i64 1024), i64 %24
  %26 = load i32, ptr %25, align 4, !tbaa !30
  %27 = add i32 %22, %26
  %28 = getelementptr inbounds nuw i8, ptr %.139, i64 4
  %29 = load i32, ptr %28, align 4, !tbaa !30
  %30 = and i32 %29, 255
  %31 = zext nneg i32 %30 to i64
  %32 = getelementptr inbounds nuw i32, ptr getelementptr inbounds nuw (i8, ptr @ff_square_tab, i64 1024), i64 %31
  %33 = load i32, ptr %32, align 4, !tbaa !30
  %34 = add i32 %27, %33
  %35 = lshr i32 %29, 8
  %36 = and i32 %35, 255
  %37 = zext nneg i32 %36 to i64
  %38 = getelementptr inbounds nuw i32, ptr getelementptr inbounds nuw (i8, ptr @ff_square_tab, i64 1024), i64 %37
  %39 = load i32, ptr %38, align 4, !tbaa !30
  %40 = add i32 %34, %39
  %41 = lshr i32 %29, 16
  %42 = and i32 %41, 255
  %43 = zext nneg i32 %42 to i64
  %44 = getelementptr inbounds nuw i32, ptr getelementptr inbounds nuw (i8, ptr @ff_square_tab, i64 1024), i64 %43
  %45 = load i32, ptr %44, align 4, !tbaa !30
  %46 = add i32 %40, %45
  %47 = lshr i32 %29, 24
  %48 = zext nneg i32 %47 to i64
  %49 = getelementptr inbounds nuw i32, ptr getelementptr inbounds nuw (i8, ptr @ff_square_tab, i64 1024), i64 %48
  %50 = load i32, ptr %49, align 4, !tbaa !30
  %51 = add i32 %46, %50
  %52 = getelementptr inbounds nuw i8, ptr %.139, i64 8
  br i1 %4, label %3, label %53, !llvm.loop !32

53:                                               ; preds = %3
  %scevgep = getelementptr i8, ptr %.042, i64 16
  %54 = getelementptr i8, ptr %scevgep, i64 %1
  %55 = getelementptr i8, ptr %54, i64 -16
  %56 = add nuw nsw i32 %.03640, 1
  %exitcond.not = icmp eq i32 %56, 16
  br i1 %exitcond.not, label %57, label %.preheader, !llvm.loop !33

57:                                               ; preds = %53
  ret i32 %51
}